target datalayout = "e-m:e-p270:32:32-p271:32:32-p272:64:64-i64:64-i128:128-f80:128-n8:16:32:64-S128"
target triple = "x86_64-pc-linux-gnu"

%struct._object = type { %union.anon.41, ptr }
%union.anon.41 = type { i64 }
%struct.PyVarObject = type { %struct._object, i64 }
%struct._typeobject = type { %struct.PyVarObject, ptr, i64, i64, ptr, i64, ptr, ptr, ptr, ptr, ptr, ptr, ptr, ptr, ptr, ptr, ptr, ptr, ptr, i64, ptr, ptr, ptr, ptr, i64, ptr, ptr, ptr, ptr, ptr, ptr, ptr, ptr, ptr, i64, ptr, ptr, ptr, ptr, ptr, ptr, ptr, ptr, ptr, ptr, ptr, i32, ptr, ptr, i8, i16 }

@.str.16 = private unnamed_addr constant [13 x i8] c"pthread_kill\00", align 1
@.str.33 = private unnamed_addr constant [11 x i8] c"argument 1\00", align 1
@.str.34 = private unnamed_addr constant [4 x i8] c"int\00", align 1

; Function Attrs: inlinehint nounwind uwtable
define internal i32 @PyType_HasFeature(ptr noundef %0, i64 noundef %1) #3 {
  %3 = alloca ptr, align 8
  %4 = alloca i64, align 8
  %5 = alloca i64, align 8
  store ptr %0, ptr %3, align 8, !tbaa !208
  store i64 %1, ptr %4, align 8, !tbaa !189
  call void @llvm.lifetime.start.p0(i64 8, ptr %5) #10
  %6 = load ptr, ptr %3, align 8, !tbaa !208
  %7 = getelementptr inbounds nuw %struct._typeobject, ptr %6, i32 0, i32 19
  %8 = load i64, ptr %7, align 8, !tbaa !224
  store i64 %8, ptr %5, align 8, !tbaa !189
  %9 = load i64, ptr %5, align 8, !tbaa !189
  %10 = load i64, ptr %4, align 8, !tbaa !189
  %11 = and i64 %9, %10
  %12 = icmp ne i64 %11, 0
  %13 = zext i1 %12 to i32
  call void @llvm.lifetime.end.p0(i64 8, ptr %5) #10
  ret i32 %13
}

; Function Attrs: inlinehint nounwind uwtable
define internal ptr @_Py_TYPE(ptr noundef %0) #3 {
  %2 = alloca ptr, align 8
  store ptr %0, ptr %2, align 8, !tbaa !179
  %3 = load ptr, ptr %2, align 8, !tbaa !179
  %4 = getelementptr inbounds nuw %struct._object, ptr %3, i32 0, i32 1
  %5 = load ptr, ptr %4, align 8, !tbaa !229
  ret ptr %5
}

; Function Attrs: nounwind uwtable
define internal ptr @signal_pthread_kill(ptr noundef %0, ptr noundef %1, i64 noundef %2) #0 {
  %4 = alloca ptr, align 8
  %5 = alloca ptr, align 8
  %6 = alloca i64, align 8
  %7 = alloca ptr, align 8
  %8 = alloca i64, align 8
  %9 = alloca i32, align 4
  store ptr %0, ptr %4, align 8, !tbaa !179
  store ptr %1, ptr %5, align 8, !tbaa !184
  store i64 %2, ptr %6, align 8, !tbaa !189
  call void @llvm.lifetime.start.p0(i64 8, ptr %7) #10
  store ptr null, ptr %7, align 8, !tbaa !179
  call void @llvm.lifetime.start.p0(i64 8, ptr %8) #10
  call void @llvm.lifetime.start.p0(i64 4, ptr %9) #10
  %10 = load i64, ptr %6, align 8, !tbaa !189
  %11 = icmp sle i64 2, %10
  br i1 %11, label %12, label %15

12:                                               ; preds = %3
  %13 = load i64, ptr %6, align 8, !tbaa !189
  %14 = icmp sle i64 %13, 2
  br i1 %14, label %20, label %15

15:                                               ; preds = %12, %3
  %16 = load i64, ptr %6, align 8, !tbaa !189
  %17 = call i32 @_PyArg_CheckPositional(ptr noundef @.str.16, i64 noundef %16, i64 noundef 2, i64 noundef 2)
  %18 = icmp ne i32 %17, 0
  br i1 %18, label %20, label %19

19:                                               ; preds = %15
  br label %51

20:                                               ; preds = %15, %12
  %21 = load ptr, ptr %5, align 8, !tbaa !184
  %22 = getelementptr ptr, ptr %21, i64 0
  %23 = load ptr, ptr %22, align 8, !tbaa !179
  %24 = call ptr @_Py_TYPE(ptr noundef %23)
  %25 = call i32 @PyType_HasFeature(ptr noundef %24, i64 noundef 16777216)
  %26 = icmp ne i32 %25, 0
  br i1 %26, label %31, label %27

27:                                               ; preds = %20
  %28 = load ptr, ptr %5, align 8, !tbaa !184
  %29 = getelementptr ptr, ptr %28, i64 0
  %30 = load ptr, ptr %29, align 8, !tbaa !179
  call void @_PyArg_BadArgument(ptr noundef @.str.16, ptr noundef @.str.33, ptr noundef @.str.34, ptr noundef %30)
  br label %51

31:                                               ; preds = %20
  %32 = load ptr, ptr %5, align 8, !tbaa !184
  %33 = getelementptr ptr, ptr %32, i64 0
  %34 = load ptr, ptr %33, align 8, !tbaa !179
  %35 = call i64 @PyLong_AsUnsignedLongMask(ptr noundef %34)
  store i64 %35, ptr %8, align 8, !tbaa !189
  %36 = load ptr, ptr %5, align 8, !tbaa !184
  %37 = getelementptr ptr, ptr %36, i64 1
  %38 = load ptr, ptr %37, align 8, !tbaa !179
  %39 = call i32 @PyLong_AsInt(ptr noundef %38)
  store i32 %39, ptr %9, align 4, !tbaa !4
  %40 = load i32, ptr %9, align 4, !tbaa !4
  %41 = icmp eq i32 %40, -1
  br i1 %41, label %42, label %46

42:                                               ; preds = %31
  %43 = call ptr @PyErr_Occurred()
  %44 = icmp ne ptr %43, null
  br i1 %44, label %45, label %46

45:                                               ; preds = %42
  br label %51

46:                                               ; preds = %42, %31
  %47 = load ptr, ptr %4, align 8, !tbaa !179
  %48 = load i64, ptr %8, align 8, !tbaa !189
  %49 = load i32, ptr %9, align 4, !tbaa !4
  %50 = call ptr @signal_pthread_kill_impl(ptr noundef %47, i64 noundef %48, i32 noundef %49)
  store ptr %50, ptr %7, align 8, !tbaa !179
  br label %51

51:                                               ; preds = %46, %45, %27, %19
  %52 = load ptr, ptr %7, align 8, !tbaa !179
  call void @llvm.lifetime.end.p0(i64 4, ptr %9) #10
  call void @llvm.lifetime.end.p0(i64 8, ptr %8) #10
  call void @llvm.lifetime.end.p0(i64 8, ptr %7) #10
  ret ptr %52
}