; Function Attrs: nounwind uwtable
define internal noundef ptr @signal_pthread_kill(ptr readnone captures(none) %0, ptr noundef readonly captures(none) %1, i64 noundef %2) #2 {
  %or.cond = icmp eq i64 %2, 2
  br i1 %or.cond, label %6, label %4

4:                                                ; preds = %3
  %5 = tail call i32 @_PyArg_CheckPositional(ptr noundef nonnull @.str.16, i64 noundef %2, i64 noundef 2, i64 noundef 2) #15
  %.not = icmp eq i32 %5, 0
  br i1 %.not, label %22, label %6

6:                                                ; preds = %3, %4
  %7 = load ptr, ptr %1, align 8, !tbaa !176
  %8 = getelementptr i8, ptr %7, i64 8
  %.val = load ptr, ptr %8, align 8, !tbaa !178
  %9 = getelementptr i8, ptr %.val, i64 168
  %.val16 = load i64, ptr %9, align 8, !tbaa !213
  %10 = and i64 %.val16, 16777216
  %.not14 = icmp eq i64 %10, 0
  br i1 %.not14, label %11, label %12

11:                                               ; preds = %6
  tail call void @_PyArg_BadArgument(ptr noundef nonnull @.str.16, ptr noundef nonnull @.str.33, ptr noundef nonnull @.str.34, ptr noundef nonnull %7) #15
  br label %22

12:                                               ; preds = %6
  %13 = tail call i64 @PyLong_AsUnsignedLongMask(ptr noundef nonnull %7) #15
  %14 = getelementptr i8, ptr %1, i64 8
  %15 = load ptr, ptr %14, align 8, !tbaa !176
  %16 = tail call i32 @PyLong_AsInt(ptr noundef %15) #15
  %17 = icmp eq i32 %16, -1
  br i1 %17, label %19, label %.split

.split:                                           ; preds = %12
  %18 = tail call fastcc ptr @signal_pthread_kill_impl(i64 noundef %13, i32 noundef %16)
  br label %22

19:                                               ; preds = %12
  %20 = tail call ptr @PyErr_Occurred() #15
  %.not15 = icmp eq ptr %20, null
  br i1 %.not15, label %.split12, label %22

.split12:                                         ; preds = %19
  %21 = tail call fastcc ptr @signal_pthread_kill_impl(i64 noundef %13, i32 noundef -1)
  br label %22

22:                                               ; preds = %.split, %.split12, %19, %4, %11
  %.0 = phi ptr [ null, %19 ], [ null, %11 ], [ null, %4 ], [ %18, %.split ], [ %21, %.split12 ]
  ret ptr %.0
}